; Function Attrs: mustprogress uwtable
define internal void @_ZN2THL15THDiskFile_seekEPNS_8THFile__El(ptr noundef captures(none) %0, i64 noundef %1) #5 personality ptr @__gxx_personality_v0 {
  %3 = alloca %"class.std::__cxx11::basic_string", align 8
  %4 = alloca %"class.std::allocator", align 1
  %5 = alloca %"class.std::__cxx11::basic_string", align 8
  %6 = getelementptr inbounds nuw i8, ptr %0, i64 32
  %7 = load ptr, ptr %6, align 8, !tbaa !3
  %.not = icmp eq ptr %7, null
  br i1 %.not, label %8, label %21

8:                                                ; preds = %2
  call void @llvm.lifetime.start.p0(i64 32, ptr nonnull %3) #17
  call void @llvm.lifetime.start.p0(i64 1, ptr nonnull %4) #17
  invoke void @_ZNSt7__cxx1112basic_stringIcSt11char_traitsIcESaIcEEC2EPKcRKS3_(ptr noundef nonnull align 8 dereferenceable(32) %3, ptr noundef nonnull @.str, ptr noundef nonnull align 1 dereferenceable(1) %4)
          to label %9 unwind label %11

9:                                                ; preds = %8
  invoke void @_ZN2cv5errorEiRKNSt7__cxx1112basic_stringIcSt11char_traitsIcESaIcEEEPKcS9_i(i32 noundef -215, ptr noundef nonnull align 8 dereferenceable(32) %3, ptr noundef nonnull @__func__._ZN2THL15THDiskFile_seekEPNS_8THFile__El, ptr noundef nonnull @.str.1, i32 noundef 111) #18
          to label %10 unwind label %13

10:                                               ; preds = %9
  unreachable

11:                                               ; preds = %8
  %12 = landingpad { ptr, i32 }
          cleanup
  br label %_ZNSt7__cxx1112basic_stringIcSt11char_traitsIcESaIcEED2Ev.exit

13:                                               ; preds = %9
  %14 = landingpad { ptr, i32 }
          cleanup
  %15 = load ptr, ptr %3, align 8, !tbaa !12
  %16 = getelementptr inbounds nuw i8, ptr %3, i64 16
  %17 = icmp eq ptr %15, %16
  br i1 %17, label %_ZNKSt7__cxx1112basic_stringIcSt11char_traitsIcESaIcEE11_M_is_localEv.exit.thread.i.i, label %_ZNKSt7__cxx1112basic_stringIcSt11char_traitsIcESaIcEE11_M_is_localEv.exit.i.i

_ZNKSt7__cxx1112basic_stringIcSt11char_traitsIcESaIcEE11_M_is_localEv.exit.thread.i.i: ; preds = %13
  %18 = getelementptr inbounds nuw i8, ptr %3, i64 8
  %19 = load i64, ptr %18, align 8, !tbaa !17
  %20 = icmp ult i64 %19, 16
  call void @llvm.assume(i1 %20)
  br label %_ZNSt7__cxx1112basic_stringIcSt11char_traitsIcESaIcEED2Ev.exit

_ZNKSt7__cxx1112basic_stringIcSt11char_traitsIcESaIcEE11_M_is_localEv.exit.i.i: ; preds = %13
  call void @_ZdlPv(ptr noundef %15) #19
  br label %_ZNSt7__cxx1112basic_stringIcSt11char_traitsIcESaIcEED2Ev.exit

_ZNSt7__cxx1112basic_stringIcSt11char_traitsIcESaIcEED2Ev.exit: ; preds = %_ZNKSt7__cxx1112basic_stringIcSt11char_traitsIcESaIcEE11_M_is_localEv.exit.i.i, %_ZNKSt7__cxx1112basic_stringIcSt11char_traitsIcESaIcEE11_M_is_localEv.exit.thread.i.i, %11
  %.pn = phi { ptr, i32 } [ %12, %11 ], [ %14, %_ZNKSt7__cxx1112basic_stringIcSt11char_traitsIcESaIcEE11_M_is_localEv.exit.thread.i.i ], [ %14, %_ZNKSt7__cxx1112basic_stringIcSt11char_traitsIcESaIcEE11_M_is_localEv.exit.i.i ]
  call void @llvm.lifetime.end.p0(i64 1, ptr nonnull %4) #17
  call void @llvm.lifetime.end.p0(i64 32, ptr nonnull %3) #17
  br label %39

21:                                               ; preds = %2
  %22 = tail call i32 @fseeko(ptr noundef nonnull %7, i64 noundef %1, i32 noundef 0)
  %23 = icmp slt i32 %22, 0
  br i1 %23, label %24, label %38

24:                                               ; preds = %21
  %25 = getelementptr inbounds nuw i8, ptr %0, i64 28
  store i32 1, ptr %25, align 4, !tbaa !28
  %26 = getelementptr inbounds nuw i8, ptr %0, i64 8
  %27 = load i32, ptr %26, align 8, !tbaa !23
  %.not12 = icmp eq i32 %27, 0
  br i1 %.not12, label %28, label %38

28:                                               ; preds = %24
  call void @llvm.lifetime.start.p0(i64 32, ptr nonnull %5) #17
  call void (ptr, ptr, ...) @_ZN2cv6formatB5cxx11EPKcz(ptr dead_on_unwind nonnull writable sret(%"class.std::__cxx11::basic_string") align 8 %5, ptr noundef nonnull @.str.21, i64 noundef %1)
  invoke void @_ZN2cv5errorEiRKNSt7__cxx1112basic_stringIcSt11char_traitsIcESaIcEEEPKcS9_i(i32 noundef -2, ptr noundef nonnull align 8 dereferenceable(32) %5, ptr noundef nonnull @__func__._ZN2THL15THDiskFile_seekEPNS_8THFile__El, ptr noundef nonnull @.str.1, i32 noundef 123) #18
          to label %29 unwind label %30

29:                                               ; preds = %28
  unreachable

30:                                               ; preds = %28
  %31 = landingpad { ptr, i32 }
          cleanup
  %32 = load ptr, ptr %5, align 8, !tbaa !12
  %33 = getelementptr inbounds nuw i8, ptr %5, i64 16
  %34 = icmp eq ptr %32, %33
  br i1 %34, label %_ZNKSt7__cxx1112basic_stringIcSt11char_traitsIcESaIcEE11_M_is_localEv.exit.thread.i.i16, label %_ZNKSt7__cxx1112basic_stringIcSt11char_traitsIcESaIcEE11_M_is_localEv.exit.i.i15

_ZNKSt7__cxx1112basic_stringIcSt11char_traitsIcESaIcEE11_M_is_localEv.exit.thread.i.i16: ; preds = %30
  %35 = getelementptr inbounds nuw i8, ptr %5, i64 8
  %36 = load i64, ptr %35, align 8, !tbaa !17
  %37 = icmp ult i64 %36, 16
  call void @llvm.assume(i1 %37)
  br label %_ZNSt7__cxx1112basic_stringIcSt11char_traitsIcESaIcEED2Ev.exit17

_ZNKSt7__cxx1112basic_stringIcSt11char_traitsIcESaIcEE11_M_is_localEv.exit.i.i15: ; preds = %30
  call void @_ZdlPv(ptr noundef %32) #19
  br label %_ZNSt7__cxx1112basic_stringIcSt11char_traitsIcESaIcEED2Ev.exit17

_ZNSt7__cxx1112basic_stringIcSt11char_traitsIcESaIcEED2Ev.exit17: ; preds = %_ZNKSt7__cxx1112basic_stringIcSt11char_traitsIcESaIcEE11_M_is_localEv.exit.thread.i.i16, %_ZNKSt7__cxx1112basic_stringIcSt11char_traitsIcESaIcEE11_M_is_localEv.exit.i.i15
  call void @llvm.lifetime.end.p0(i64 32, ptr nonnull %5) #17
  br label %39

38:                                               ; preds = %24, %21
  ret void

39:                                               ; preds = %_ZNSt7__cxx1112basic_stringIcSt11char_traitsIcESaIcEED2Ev.exit17, %_ZNSt7__cxx1112basic_stringIcSt11char_traitsIcESaIcEED2Ev.exit
  %.pn13 = phi { ptr, i32 } [ %31, %_ZNSt7__cxx1112basic_stringIcSt11char_traitsIcESaIcEED2Ev.exit17 ], [ %.pn, %_ZNSt7__cxx1112basic_stringIcSt11char_traitsIcESaIcEED2Ev.exit ]
  resume { ptr, i32 } %.pn13
}